; ModuleID = 'bench/linux/original/rsrc_mgr.ll'
source_filename = "bench/linux/original/rsrc_mgr.ll"
target datalayout = "e-m:e-p270:32:32-p271:32:32-p272:64:64-i64:64-i128:128-f80:128-n8:16:32:64-S128"
target triple = "x86_64-unknown-linux-gnu"

module asm ".section \22.export_symbol\22,\22a\22 ; __export_symbol_pccard_static_ops: ; .asciz \22\22 ; .asciz \22\22 ; .balign 8 ; .quad pccard_static_ops ; .previous"

%struct.pccard_resource_ops = type { ptr, ptr, ptr, ptr, ptr }

@pccard_static_ops = dso_local global %struct.pccard_resource_ops { ptr null, ptr @static_find_io, ptr null, ptr @static_init, ptr null }, align 8
@__UNIQUE_ID___addressable_pccard_static_ops352 = internal global ptr @pccard_static_ops, section ".discard.addressable", align 8
@__UNIQUE_ID_author353 = internal constant [53 x i8] c"pcmcia_rsrc.author=David A. Hinds, Dominik Brodowski\00", section ".modinfo", align 1
@__UNIQUE_ID_file354 = internal constant [44 x i8] c"pcmcia_rsrc.file=drivers/pcmcia/pcmcia_rsrc\00", section ".modinfo", align 1
@__UNIQUE_ID_license355 = internal constant [24 x i8] c"pcmcia_rsrc.license=GPL\00", section ".modinfo", align 1
@__UNIQUE_ID_alias356 = internal constant [33 x i8] c"pcmcia_rsrc.alias=rsrc_nonstatic\00", section ".modinfo", align 1
@kmalloc_caches = external dso_local local_unnamed_addr global [3 x [14 x ptr]], align 16
@llvm.compiler.used = appending global [5 x ptr] [ptr @__UNIQUE_ID___addressable_pccard_static_ops352, ptr @__UNIQUE_ID_alias356, ptr @__UNIQUE_ID_author353, ptr @__UNIQUE_ID_file354, ptr @__UNIQUE_ID_license355], section "llvm.metadata"

; Function Attrs: fn_ret_thunk_extern mustprogress nofree norecurse nosync nounwind null_pointer_is_valid willreturn memory(argmem: write)
define dso_local noundef i32 @static_init(ptr nocapture noundef writeonly %0) #0 align 16 {
  %2 = getelementptr inbounds i8, ptr %0, i64 344
  store i8 1, ptr %2, align 8
  ret i32 0
}

; Function Attrs: fn_ret_thunk_extern nounwind null_pointer_is_valid
define dso_local noalias noundef ptr @pcmcia_make_resource(i64 noundef %0, i64 noundef %1, i64 noundef %2, ptr noundef %3) local_unnamed_addr #1 align 16 {
  %5 = load ptr, ptr getelementptr inbounds ([3 x [14 x ptr]], ptr @kmalloc_caches, i64 0, i64 0, i64 6), align 16
  %6 = tail call noalias noundef align 8 dereferenceable_or_null(64) ptr @kmalloc_trace(ptr noundef %5, i32 noundef 3520, i64 noundef 64) #4
  %7 = icmp eq ptr %6, null
  br i1 %7, label %14, label %8

8:                                                ; preds = %4
  %9 = getelementptr inbounds i8, ptr %6, i64 16
  store ptr %3, ptr %9, align 8
  store i64 %0, ptr %6, align 8
  %10 = add i64 %0, -1
  %11 = add i64 %10, %1
  %12 = getelementptr inbounds i8, ptr %6, i64 8
  store i64 %11, ptr %12, align 8
  %13 = getelementptr inbounds i8, ptr %6, i64 24
  store i64 %2, ptr %13, align 8
  br label %14

14:                                               ; preds = %8, %4
  ret ptr %6
}

; Function Attrs: fn_ret_thunk_extern mustprogress nofree norecurse nosync nounwind null_pointer_is_valid willreturn memory(argmem: readwrite)
define internal noundef i32 @static_find_io(ptr nocapture noundef readonly %0, i32 %1, ptr nocapture noundef %2, i32 %3, i32 %4, ptr nocapture noundef writeonly %5) #2 align 16 {
  %7 = getelementptr inbounds i8, ptr %0, i64 328
  %8 = load i32, ptr %7, align 8
  %9 = icmp eq i32 %8, 0
  br i1 %9, label %14, label %10

10:                                               ; preds = %6
  %11 = load i32, ptr %2, align 4
  %12 = and i32 %11, 4095
  %13 = or i32 %12, %8
  store i32 %13, ptr %2, align 4
  store ptr null, ptr %5, align 8
  br label %14

14:                                               ; preds = %10, %6
  %15 = phi i32 [ 0, %10 ], [ -22, %6 ]
  ret i32 %15
}

; Function Attrs: null_pointer_is_valid allocsize(2)
declare dso_local noalias ptr @kmalloc_trace(ptr noundef, i32 noundef, i64 noundef) local_unnamed_addr #3


!llvm.module.flags = !{!0, !1, !2, !3, !4}

!0 = !{i32 1, !"wchar_size", i32 2}
!1 = !{i32 8, !"cf-protection-branch", i32 1}
!2 = !{i32 4, !"function_return_thunk_extern", i32 1}
!3 = !{i32 4, !"indirect_branch_cs_prefix", i32 1}
!4 = !{i32 4, !"SkipRaxSetup", i32 1}
